; ModuleID = '44/862.c'
source_filename = "44/862.c"
target datalayout = "e-m:e-p270:32:32-p271:32:32-p272:64:64-i64:64-f80:128-n8:16:32:64-S128"
target triple = "x86_64-pc-linux-gnu"

@.str = private unnamed_addr constant [3 x i8] c"%d\00", align 1
@.str.1 = private unnamed_addr constant [4 x i8] c"%d\0A\00", align 1

; Function Attrs: noinline nounwind uwtable
define dso_local i32 @main() #0 {
  %1 = alloca i32, align 4
  %2 = alloca i32, align 4
  %3 = alloca [6 x i32], align 16
  %4 = alloca [6 x i32], align 16
  store i32 0, i32* %1, align 4
  store i32 0, i32* %2, align 4
  br label %5

5:                                                ; preds = %21, %0
  %6 = load i32, i32* %2, align 4
  %7 = icmp slt i32 %6, 6
  br i1 %7, label %8, label %24

8:                                                ; preds = %5
  %9 = load i32, i32* %2, align 4
  %10 = sext i32 %9 to i64
  %11 = getelementptr inbounds [6 x i32], [6 x i32]* %3, i64 0, i64 %10
  %12 = call i32 (i8*, ...) @__isoc99_scanf(i8* getelementptr inbounds ([3 x i8], [3 x i8]* @.str, i64 0, i64 0), i32* %11)
  %13 = load i32, i32* %2, align 4
  %14 = sext i32 %13 to i64
  %15 = getelementptr inbounds [6 x i32], [6 x i32]* %3, i64 0, i64 %14
  %16 = load i32, i32* %15, align 4
  %17 = call i32 @reverse(i32 %16)
  %18 = load i32, i32* %2, align 4
  %19 = sext i32 %18 to i64
  %20 = getelementptr inbounds [6 x i32], [6 x i32]* %4, i64 0, i64 %19
  store i32 %17, i32* %20, align 4
  br label %21

21:                                               ; preds = %8
  %22 = load i32, i32* %2, align 4
  %23 = add nsw i32 %22, 1
  store i32 %23, i32* %2, align 4
  br label %5

24:                                               ; preds = %5
  store i32 0, i32* %2, align 4
  br label %25

25:                                               ; preds = %34, %24
  %26 = load i32, i32* %2, align 4
  %27 = icmp slt i32 %26, 6
  br i1 %27, label %28, label %37

28:                                               ; preds = %25
  %29 = load i32, i32* %2, align 4
  %30 = sext i32 %29 to i64
  %31 = getelementptr inbounds [6 x i32], [6 x i32]* %4, i64 0, i64 %30
  %32 = load i32, i32* %31, align 4
  %33 = call i32 (i8*, ...) @printf(i8* getelementptr inbounds ([4 x i8], [4 x i8]* @.str.1, i64 0, i64 0), i32 %32)
  br label %34

34:                                               ; preds = %28
  %35 = load i32, i32* %2, align 4
  %36 = add nsw i32 %35, 1
  store i32 %36, i32* %2, align 4
  br label %25

37:                                               ; preds = %25
  %38 = load i32, i32* %1, align 4
  ret i32 %38
}

declare dso_local i32 @__isoc99_scanf(i8*, ...) #1

; Function Attrs: noinline nounwind uwtable
define dso_local i32 @reverse(i32 %0) #0 {
  %2 = alloca i32, align 4
  %3 = alloca i32, align 4
  %4 = alloca i32, align 4
  %5 = alloca i32, align 4
  %6 = alloca i32, align 4
  store i32 %0, i32* %2, align 4
  store i32 0, i32* %5, align 4
  store i32 0, i32* %6, align 4
  %7 = load i32, i32* %2, align 4
  store i32 %7, i32* %3, align 4
  %8 = load i32, i32* %2, align 4
  %9 = icmp slt i32 %8, 0
  br i1 %9, label %10, label %13

10:                                               ; preds = %1
  %11 = load i32, i32* %2, align 4
  %12 = sub nsw i32 0, %11
  store i32 %12, i32* %2, align 4
  br label %13

13:                                               ; preds = %10, %1
  br label %14

14:                                               ; preds = %17, %13
  %15 = load i32, i32* %2, align 4
  %16 = icmp ne i32 %15, 0
  br i1 %16, label %17, label %26

17:                                               ; preds = %14
  %18 = load i32, i32* %2, align 4
  %19 = srem i32 %18, 10
  store i32 %19, i32* %5, align 4
  %20 = load i32, i32* %6, align 4
  %21 = mul nsw i32 %20, 10
  %22 = load i32, i32* %5, align 4
  %23 = add nsw i32 %21, %22
  store i32 %23, i32* %6, align 4
  %24 = load i32, i32* %2, align 4
  %25 = sdiv i32 %24, 10
  store i32 %25, i32* %2, align 4
  br label %14

26:                                               ; preds = %14
  %27 = load i32, i32* %3, align 4
  %28 = icmp slt i32 %27, 0
  br i1 %28, label %29, label %32

29:                                               ; preds = %26
  %30 = load i32, i32* %6, align 4
  %31 = sub nsw i32 0, %30
  store i32 %31, i32* %6, align 4
  br label %32

32:                                               ; preds = %29, %26
  %33 = load i32, i32* %6, align 4
  ret i32 %33
}

declare dso_local i32 @printf(i8*, ...) #1


!llvm.module.flags = !{!0}
!llvm.ident = !{!1}

!0 = !{i32 1, !"wchar_size", i32 4}
!1 = !{!"clang version 10.0.0-4ubuntu1 "}
